target datalayout = "e-m:e-p270:32:32-p271:32:32-p272:64:64-i64:64-i128:128-f80:128-n8:16:32:64-S128"
target triple = "x86_64-pc-linux-gnu"

%struct.quic_port_st = type { ptr, %struct.anon, ptr, ptr, ptr, ptr, ptr, ptr, %struct.ossl_list_st_ch, %struct.ossl_list_st_incoming_ch, ptr, ptr, ptr, ptr, i8, i8, i16, ptr }
%struct.anon = type { ptr, ptr }
%struct.ossl_list_st_ch = type { ptr, ptr, i64 }
%struct.ossl_list_st_incoming_ch = type { ptr, ptr, i64 }
%struct.quic_conn_id_st = type { i8, [20 x i8] }
%struct.quic_pkt_hdr_st = type { i32, i32, %struct.quic_conn_id_st, %struct.quic_conn_id_st, [4 x i8], ptr, i64, i64, ptr }
%struct.bio_msg_st = type { ptr, i64, ptr, ptr, i64 }
%struct.wpacket_st = type { ptr, ptr, i64, i64, i64, ptr, i8 }

@.str = private unnamed_addr constant [32 x i8] c"../openssl/ssl/quic/quic_port.c\00", align 1
@__func__.port_send_version_negotiation = private unnamed_addr constant [30 x i8] c"port_send_version_negotiation\00", align 1
@.str.3 = private unnamed_addr constant [37 x i8] c"port version negotiation send failed\00", align 1

; Function Attrs: inlinehint nounwind uwtable
define internal i32 @__bswap_32(i32 noundef %0) #3 {
  %2 = alloca i32, align 4
  store i32 %0, ptr %2, align 4, !tbaa !41
  %3 = load i32, ptr %2, align 4, !tbaa !41
  %4 = and i32 %3, -16777216
  %5 = lshr i32 %4, 24
  %6 = load i32, ptr %2, align 4, !tbaa !41
  %7 = and i32 %6, 16711680
  %8 = lshr i32 %7, 8
  %9 = or i32 %5, %8
  %10 = load i32, ptr %2, align 4, !tbaa !41
  %11 = and i32 %10, 65280
  %12 = shl i32 %11, 8
  %13 = or i32 %9, %12
  %14 = load i32, ptr %2, align 4, !tbaa !41
  %15 = and i32 %14, 255
  %16 = shl i32 %15, 24
  %17 = or i32 %13, %16
  ret i32 %17
}

; Function Attrs: nounwind uwtable
define internal void @port_send_version_negotiation(ptr noundef %0, ptr noundef %1, ptr noundef %2) #0 {
  %4 = alloca ptr, align 8
  %5 = alloca ptr, align 8
  %6 = alloca ptr, align 8
  %7 = alloca [1 x %struct.bio_msg_st], align 16
  %8 = alloca [1024 x i8], align 16
  %9 = alloca %struct.quic_pkt_hdr_st, align 8
  %10 = alloca %struct.wpacket_st, align 8
  %11 = alloca [1 x i32], align 4
  %12 = alloca i64, align 8
  %13 = alloca i64, align 8
  %14 = alloca i32, align 4
  store ptr %0, ptr %4, align 8, !tbaa !8
  store ptr %1, ptr %5, align 8, !tbaa !218
  store ptr %2, ptr %6, align 8, !tbaa !220
  call void @llvm.lifetime.start.p0(i64 40, ptr %7) #8
  call void @llvm.lifetime.start.p0(i64 1024, ptr %8) #8
  call void @llvm.lifetime.start.p0(i64 88, ptr %9) #8
  call void @llvm.lifetime.start.p0(i64 56, ptr %10) #8
  call void @llvm.lifetime.start.p0(i64 4, ptr %11) #8
  call void @llvm.lifetime.start.p0(i64 8, ptr %12) #8
  call void @llvm.lifetime.start.p0(i64 8, ptr %13) #8
  call void @llvm.memset.p0.i64(ptr align 8 %9, i8 0, i64 88, i1 false)
  %15 = getelementptr inbounds nuw %struct.quic_pkt_hdr_st, ptr %9, i32 0, i32 2
  %16 = load ptr, ptr %6, align 8, !tbaa !220
  %17 = getelementptr inbounds nuw %struct.quic_pkt_hdr_st, ptr %16, i32 0, i32 3
  call void @llvm.memcpy.p0.p0.i64(ptr align 8 %15, ptr align 1 %17, i64 21, i1 false), !tbaa.struct !222
  %18 = getelementptr inbounds nuw %struct.quic_pkt_hdr_st, ptr %9, i32 0, i32 3
  %19 = load ptr, ptr %6, align 8, !tbaa !220
  %20 = getelementptr inbounds nuw %struct.quic_pkt_hdr_st, ptr %19, i32 0, i32 2
  call void @llvm.memcpy.p0.p0.i64(ptr align 1 %18, ptr align 8 %20, i64 21, i1 false), !tbaa.struct !222
  %21 = getelementptr inbounds [1 x i32], ptr %11, i64 0, i64 0
  store i32 1, ptr %21, align 4, !tbaa !41
  %22 = load i32, ptr %9, align 8
  %23 = and i32 %22, -256
  %24 = or i32 %23, 6
  store i32 %24, ptr %9, align 8
  %25 = getelementptr inbounds nuw %struct.quic_pkt_hdr_st, ptr %9, i32 0, i32 1
  store i32 0, ptr %25, align 4, !tbaa !203
  %26 = getelementptr inbounds nuw %struct.quic_pkt_hdr_st, ptr %9, i32 0, i32 5
  store ptr null, ptr %26, align 8, !tbaa !206
  %27 = getelementptr inbounds nuw %struct.quic_pkt_hdr_st, ptr %9, i32 0, i32 6
  store i64 0, ptr %27, align 8, !tbaa !223
  %28 = getelementptr inbounds nuw %struct.quic_pkt_hdr_st, ptr %9, i32 0, i32 7
  store i64 4, ptr %28, align 8, !tbaa !224
  %29 = getelementptr inbounds [1 x i32], ptr %11, i64 0, i64 0
  %30 = getelementptr inbounds nuw %struct.quic_pkt_hdr_st, ptr %9, i32 0, i32 8
  store ptr %29, ptr %30, align 8, !tbaa !225
  %31 = getelementptr inbounds [1024 x i8], ptr %8, i64 0, i64 0
  %32 = getelementptr inbounds [1 x %struct.bio_msg_st], ptr %7, i64 0, i64 0
  %33 = getelementptr inbounds nuw %struct.bio_msg_st, ptr %32, i32 0, i32 0
  store ptr %31, ptr %33, align 16, !tbaa !226
  %34 = load ptr, ptr %5, align 8, !tbaa !218
  %35 = getelementptr inbounds [1 x %struct.bio_msg_st], ptr %7, i64 0, i64 0
  %36 = getelementptr inbounds nuw %struct.bio_msg_st, ptr %35, i32 0, i32 2
  store ptr %34, ptr %36, align 16, !tbaa !228
  %37 = getelementptr inbounds [1 x %struct.bio_msg_st], ptr %7, i64 0, i64 0
  %38 = getelementptr inbounds nuw %struct.bio_msg_st, ptr %37, i32 0, i32 3
  store ptr null, ptr %38, align 8, !tbaa !229
  %39 = getelementptr inbounds [1 x %struct.bio_msg_st], ptr %7, i64 0, i64 0
  %40 = getelementptr inbounds nuw %struct.bio_msg_st, ptr %39, i32 0, i32 4
  store i64 0, ptr %40, align 16, !tbaa !230
  %41 = getelementptr inbounds [1024 x i8], ptr %8, i64 0, i64 0
  %42 = call i32 @WPACKET_init_static_len(ptr noundef %10, ptr noundef %41, i64 noundef 1024, i64 noundef 0)
  %43 = icmp ne i32 %42, 0
  br i1 %43, label %45, label %44

44:                                               ; preds = %3
  store i32 1, ptr %14, align 4
  br label %90

45:                                               ; preds = %3
  %46 = load ptr, ptr %6, align 8, !tbaa !220
  %47 = getelementptr inbounds nuw %struct.quic_pkt_hdr_st, ptr %46, i32 0, i32 2
  %48 = getelementptr inbounds nuw %struct.quic_conn_id_st, ptr %47, i32 0, i32 0
  %49 = load i8, ptr %48, align 8, !tbaa !231
  %50 = zext i8 %49 to i64
  %51 = call i32 @ossl_quic_wire_encode_pkt_hdr(ptr noundef %10, i64 noundef %50, ptr noundef %9, ptr noundef null)
  %52 = icmp ne i32 %51, 0
  br i1 %52, label %54, label %53

53:                                               ; preds = %45
  store i32 1, ptr %14, align 4
  br label %90

54:                                               ; preds = %45
  store i64 0, ptr %13, align 8, !tbaa !36
  br label %55

55:                                               ; preds = %68, %54
  %56 = load i64, ptr %13, align 8, !tbaa !36
  %57 = icmp ult i64 %56, 1
  br i1 %57, label %58, label %71

58:                                               ; preds = %55
  %59 = load i64, ptr %13, align 8, !tbaa !36
  %60 = getelementptr inbounds nuw [1 x i32], ptr %11, i64 0, i64 %59
  %61 = load i32, ptr %60, align 4, !tbaa !41
  %62 = call i32 @__bswap_32(i32 noundef %61)
  %63 = zext i32 %62 to i64
  %64 = call i32 @WPACKET_put_bytes__(ptr noundef %10, i64 noundef %63, i64 noundef 4)
  %65 = icmp ne i32 %64, 0
  br i1 %65, label %67, label %66

66:                                               ; preds = %58
  store i32 1, ptr %14, align 4
  br label %90

67:                                               ; preds = %58
  br label %68

68:                                               ; preds = %67
  %69 = load i64, ptr %13, align 8, !tbaa !36
  %70 = add i64 %69, 1
  store i64 %70, ptr %13, align 8, !tbaa !36
  br label %55, !llvm.loop !232

71:                                               ; preds = %55
  %72 = getelementptr inbounds [1 x %struct.bio_msg_st], ptr %7, i64 0, i64 0
  %73 = getelementptr inbounds nuw %struct.bio_msg_st, ptr %72, i32 0, i32 1
  %74 = call i32 @WPACKET_get_total_written(ptr noundef %10, ptr noundef %73)
  %75 = icmp ne i32 %74, 0
  br i1 %75, label %77, label %76

76:                                               ; preds = %71
  store i32 1, ptr %14, align 4
  br label %90

77:                                               ; preds = %71
  %78 = call i32 @WPACKET_finish(ptr noundef %10)
  %79 = icmp ne i32 %78, 0
  br i1 %79, label %81, label %80

80:                                               ; preds = %77
  store i32 1, ptr %14, align 4
  br label %90

81:                                               ; preds = %77
  %82 = load ptr, ptr %4, align 8, !tbaa !8
  %83 = getelementptr inbounds nuw %struct.quic_port_st, ptr %82, i32 0, i32 6
  %84 = load ptr, ptr %83, align 8, !tbaa !64
  %85 = getelementptr inbounds [1 x %struct.bio_msg_st], ptr %7, i64 0, i64 0
  %86 = call i32 @BIO_sendmmsg(ptr noundef %84, ptr noundef %85, i64 noundef 40, i64 noundef 1, i64 noundef 0, ptr noundef %12)
  %87 = icmp ne i32 %86, 0
  br i1 %87, label %89, label %88

88:                                               ; preds = %81
  call void @ERR_new()
  call void @ERR_set_debug(ptr noundef @.str, i32 noundef 1241, ptr noundef @__func__.port_send_version_negotiation)
  call void (i32, i32, ptr, ...) @ERR_set_error(i32 noundef 20, i32 noundef 387, ptr noundef @.str.3)
  br label %89

89:                                               ; preds = %88, %81
  store i32 0, ptr %14, align 4
  br label %90

90:                                               ; preds = %89, %80, %76, %66, %53, %44
  call void @llvm.lifetime.end.p0(i64 8, ptr %13) #8
  call void @llvm.lifetime.end.p0(i64 8, ptr %12) #8
  call void @llvm.lifetime.end.p0(i64 4, ptr %11) #8
  call void @llvm.lifetime.end.p0(i64 56, ptr %10) #8
  call void @llvm.lifetime.end.p0(i64 88, ptr %9) #8
  call void @llvm.lifetime.end.p0(i64 1024, ptr %8) #8
  call void @llvm.lifetime.end.p0(i64 40, ptr %7) #8
  %91 = load i32, ptr %14, align 4
  switch i32 %91, label %93 [
    i32 0, label %92
    i32 1, label %92
  ]

92:                                               ; preds = %90, %90
  ret void

93:                                               ; preds = %90
  unreachable
}