; Function Attrs: nounwind uwtable
define internal fastcc void @port_send_version_negotiation(ptr noundef readonly captures(none) %0, ptr noundef %1, ptr noundef nonnull readonly captures(none) %2) unnamed_addr #0 {
  %4 = alloca [1 x %struct.bio_msg_st], align 16
  %5 = alloca [1024 x i8], align 16
  %6 = alloca %struct.quic_pkt_hdr_st, align 8
  %7 = alloca %struct.wpacket_st, align 8
  %8 = alloca [1 x i32], align 4
  %9 = alloca i64, align 8
  call void @llvm.lifetime.start.p0(i64 40, ptr nonnull %4) #11
  call void @llvm.lifetime.start.p0(i64 1024, ptr nonnull %5) #11
  call void @llvm.lifetime.start.p0(i64 88, ptr nonnull %6) #11
  call void @llvm.lifetime.start.p0(i64 56, ptr nonnull %7) #11
  call void @llvm.lifetime.start.p0(i64 4, ptr nonnull %8) #11
  call void @llvm.lifetime.start.p0(i64 8, ptr nonnull %9) #11
  %10 = getelementptr inbounds nuw i8, ptr %6, i64 48
  store i64 0, ptr %10, align 8
  %11 = getelementptr inbounds nuw i8, ptr %6, i64 8
  %12 = getelementptr inbounds nuw i8, ptr %2, i64 29
  call void @llvm.memcpy.p0.p0.i64(ptr noundef nonnull align 8 dereferenceable(21) %11, ptr noundef nonnull align 1 dereferenceable(21) %12, i64 21, i1 false), !tbaa.struct !211
  %13 = getelementptr inbounds nuw i8, ptr %6, i64 29
  %14 = getelementptr inbounds nuw i8, ptr %2, i64 8
  call void @llvm.memcpy.p0.p0.i64(ptr noundef nonnull align 1 dereferenceable(21) %13, ptr noundef nonnull align 8 dereferenceable(21) %14, i64 21, i1 false), !tbaa.struct !211
  store i32 1, ptr %8, align 4, !tbaa !212
  store i32 6, ptr %6, align 8
  %15 = getelementptr inbounds nuw i8, ptr %6, i64 4
  store i32 0, ptr %15, align 4, !tbaa !207
  %16 = getelementptr inbounds nuw i8, ptr %6, i64 56
  %17 = getelementptr inbounds nuw i8, ptr %6, i64 72
  call void @llvm.memset.p0.i64(ptr noundef nonnull align 8 dereferenceable(16) %16, i8 0, i64 16, i1 false)
  store i64 4, ptr %17, align 8, !tbaa !213
  %18 = getelementptr inbounds nuw i8, ptr %6, i64 80
  store ptr %8, ptr %18, align 8, !tbaa !214
  store ptr %5, ptr %4, align 16, !tbaa !215
  %19 = getelementptr inbounds nuw i8, ptr %4, i64 16
  store ptr %1, ptr %19, align 16, !tbaa !218
  %20 = getelementptr inbounds nuw i8, ptr %4, i64 24
  call void @llvm.memset.p0.i64(ptr noundef nonnull align 8 dereferenceable(16) %20, i8 0, i64 16, i1 false)
  %21 = call i32 @WPACKET_init_static_len(ptr noundef nonnull %7, ptr noundef nonnull %5, i64 noundef 1024, i64 noundef 0) #11
  %.not = icmp eq i32 %21, 0
  br i1 %.not, label %40, label %22

22:                                               ; preds = %3
  %23 = load i8, ptr %14, align 8, !tbaa !219
  %24 = zext i8 %23 to i64
  %25 = call i32 @ossl_quic_wire_encode_pkt_hdr(ptr noundef nonnull %7, i64 noundef %24, ptr noundef nonnull %6, ptr noundef null) #11
  %.not7 = icmp eq i32 %25, 0
  br i1 %.not7, label %40, label %26

26:                                               ; preds = %22
  %27 = load i32, ptr %8, align 4, !tbaa !212
  %28 = call noundef i32 @llvm.bswap.i32(i32 %27)
  %29 = zext i32 %28 to i64
  %30 = call i32 @WPACKET_put_bytes__(ptr noundef nonnull %7, i64 noundef %29, i64 noundef 4) #11
  %.not11 = icmp eq i32 %30, 0
  br i1 %.not11, label %40, label %.critedge

.critedge:                                        ; preds = %26
  %31 = getelementptr inbounds nuw i8, ptr %4, i64 8
  %32 = call i32 @WPACKET_get_total_written(ptr noundef nonnull %7, ptr noundef nonnull %31) #11
  %.not8 = icmp eq i32 %32, 0
  br i1 %.not8, label %40, label %33

33:                                               ; preds = %.critedge
  %34 = call i32 @WPACKET_finish(ptr noundef nonnull %7) #11
  %.not9 = icmp eq i32 %34, 0
  br i1 %.not9, label %40, label %35

35:                                               ; preds = %33
  %36 = getelementptr inbounds nuw i8, ptr %0, i64 56
  %37 = load ptr, ptr %36, align 8, !tbaa !59
  %38 = call i32 @BIO_sendmmsg(ptr noundef %37, ptr noundef nonnull %4, i64 noundef 40, i64 noundef 1, i64 noundef 0, ptr noundef nonnull %9) #11
  %.not10 = icmp eq i32 %38, 0
  br i1 %.not10, label %39, label %40

39:                                               ; preds = %35
  call void @ERR_new() #11
  call void @ERR_set_debug(ptr noundef nonnull @.str, i32 noundef 1241, ptr noundef nonnull @__func__.port_send_version_negotiation) #11
  call void (i32, i32, ptr, ...) @ERR_set_error(i32 noundef 20, i32 noundef 387, ptr noundef nonnull @.str.3) #11
  br label %40

40:                                               ; preds = %35, %39, %33, %.critedge, %26, %22, %3
  call void @llvm.lifetime.end.p0(i64 8, ptr nonnull %9) #11
  call void @llvm.lifetime.end.p0(i64 4, ptr nonnull %8) #11
  call void @llvm.lifetime.end.p0(i64 56, ptr nonnull %7) #11
  call void @llvm.lifetime.end.p0(i64 88, ptr nonnull %6) #11
  call void @llvm.lifetime.end.p0(i64 1024, ptr nonnull %5) #11
  call void @llvm.lifetime.end.p0(i64 40, ptr nonnull %4) #11
  ret void
}